target datalayout = "e-m:e-p270:32:32-p271:32:32-p272:64:64-i64:64-i128:128-f80:128-n8:16:32:64-S128"
target triple = "x86_64-pc-linux-gnu"

%class.StringList = type { %class.Array, i64, i64, [16 x i64], i64 }
%class.Array = type { ptr, i64, i64, i64 }

; Function Attrs: mustprogress nounwind uwtable
define linkonce_odr void @_ZN5ArrayIwE5ResetEv(ptr noundef nonnull align 8 dereferenceable(32) %0) #1 comdat align 2 {
  %2 = alloca ptr, align 8
  store ptr %0, ptr %2, align 8
  %3 = load ptr, ptr %2, align 8
  %4 = getelementptr inbounds %class.Array, ptr %3, i32 0, i32 0
  %5 = load ptr, ptr %4, align 8
  %6 = icmp ne ptr %5, null
  br i1 %6, label %7, label %11

7:                                                ; preds = %1
  %8 = getelementptr inbounds %class.Array, ptr %3, i32 0, i32 0
  %9 = load ptr, ptr %8, align 8
  call void @free(ptr noundef %9) #6
  %10 = getelementptr inbounds %class.Array, ptr %3, i32 0, i32 0
  store ptr null, ptr %10, align 8
  br label %11

11:                                               ; preds = %7, %1
  %12 = getelementptr inbounds %class.Array, ptr %3, i32 0, i32 1
  store i64 0, ptr %12, align 8
  %13 = getelementptr inbounds %class.Array, ptr %3, i32 0, i32 2
  store i64 0, ptr %13, align 8
  ret void
}

; Function Attrs: mustprogress nounwind uwtable
define void @_ZN10StringList6RewindEv(ptr noundef nonnull align 8 dereferenceable(184) %0) #1 align 2 {
  %2 = alloca ptr, align 8
  store ptr %0, ptr %2, align 8
  %3 = load ptr, ptr %2, align 8
  %4 = getelementptr inbounds %class.StringList, ptr %3, i32 0, i32 1
  store i64 0, ptr %4, align 8
  ret void
}

; Function Attrs: mustprogress uwtable
define void @_ZN10StringList5ResetEv(ptr noundef nonnull align 8 dereferenceable(184) %0) #0 align 2 {
  %2 = alloca ptr, align 8
  store ptr %0, ptr %2, align 8
  %3 = load ptr, ptr %2, align 8
  call void @_ZN10StringList6RewindEv(ptr noundef nonnull align 8 dereferenceable(184) %3)
  %4 = getelementptr inbounds %class.StringList, ptr %3, i32 0, i32 0
  call void @_ZN5ArrayIwE5ResetEv(ptr noundef nonnull align 8 dereferenceable(32) %4)
  %5 = getelementptr inbounds %class.StringList, ptr %3, i32 0, i32 2
  store i64 0, ptr %5, align 8
  %6 = getelementptr inbounds %class.StringList, ptr %3, i32 0, i32 4
  store i64 0, ptr %6, align 8
  ret void
}