; Function Attrs: mustprogress nounwind willreturn uwtable
define void @_ZN10StringList5ResetEv(ptr nocapture noundef nonnull align 8 dereferenceable(184) %0) local_unnamed_addr #1 align 2 {
  %2 = getelementptr inbounds i8, ptr %0, i64 32
  store i64 0, ptr %2, align 8
  %3 = load ptr, ptr %0, align 8
  %.not.i = icmp eq ptr %3, null
  br i1 %.not.i, label %_ZN5ArrayIwE5ResetEv.exit, label %4

4:                                                ; preds = %1
  tail call void @free(ptr noundef nonnull %3) #14
  store ptr null, ptr %0, align 8
  br label %_ZN5ArrayIwE5ResetEv.exit

_ZN5ArrayIwE5ResetEv.exit:                        ; preds = %1, %4
  %5 = getelementptr inbounds i8, ptr %0, i64 8
  tail call void @llvm.memset.p0.i64(ptr noundef nonnull align 8 dereferenceable(16) %5, i8 0, i64 16, i1 false)
  %6 = getelementptr inbounds i8, ptr %0, i64 40
  store i64 0, ptr %6, align 8
  %7 = getelementptr inbounds i8, ptr %0, i64 176
  store i64 0, ptr %7, align 8
  ret void
}